target datalayout = "e-m:e-p270:32:32-p271:32:32-p272:64:64-i64:64-i128:128-f80:128-n8:16:32:64-S128"
target triple = "x86_64-pc-linux-gnu"

%"class.llvm::TableGen::Emitter::OptClass" = type { i8 }
%"struct.llvm::TableGen::Emitter::Opt" = type { i8 }
%"class.llvm::StringRef" = type { ptr, i64 }
%"class.llvm::function_ref" = type { ptr, i64 }
%"class.(anonymous namespace)::SkeletonEmitter" = type { ptr }
%"class.llvm::RecordKeeper" = type { %"class.std::__cxx11::basic_string", %"class.std::map", %"class.std::map", %"class.llvm::StringMap", %"class.std::map.3", ptr, ptr, i8, %"class.std::unique_ptr" }
%"class.std::__cxx11::basic_string" = type { %"struct.std::__cxx11::basic_string<char>::_Alloc_hider", i64, %union.anon }
%"struct.std::__cxx11::basic_string<char>::_Alloc_hider" = type { ptr }
%union.anon = type { i64, [8 x i8] }
%"class.std::map" = type { %"class.std::_Rb_tree" }
%"class.std::_Rb_tree" = type { %"struct.std::_Rb_tree<std::__cxx11::basic_string<char>, std::pair<const std::__cxx11::basic_string<char>, std::unique_ptr<llvm::Record>>, std::_Select1st<std::pair<const std::__cxx11::basic_string<char>, std::unique_ptr<llvm::Record>>>, std::less<void>>::_Rb_tree_impl" }
%"struct.std::_Rb_tree<std::__cxx11::basic_string<char>, std::pair<const std::__cxx11::basic_string<char>, std::unique_ptr<llvm::Record>>, std::_Select1st<std::pair<const std::__cxx11::basic_string<char>, std::unique_ptr<llvm::Record>>>, std::less<void>>::_Rb_tree_impl" = type { [8 x i8], %"struct.std::_Rb_tree_header" }
%"struct.std::_Rb_tree_header" = type { %"struct.std::_Rb_tree_node_base", i64 }
%"struct.std::_Rb_tree_node_base" = type { i32, ptr, ptr, ptr }
%"class.llvm::StringMap" = type { %"class.llvm::StringMapImpl" }
%"class.llvm::StringMapImpl" = type { ptr, i32, i32, i32, i32 }
%"class.std::map.3" = type { %"class.std::_Rb_tree.4" }
%"class.std::_Rb_tree.4" = type { %"struct.std::_Rb_tree<std::__cxx11::basic_string<char>, std::pair<const std::__cxx11::basic_string<char>, llvm::Init *>, std::_Select1st<std::pair<const std::__cxx11::basic_string<char>, llvm::Init *>>, std::less<void>>::_Rb_tree_impl" }
%"struct.std::_Rb_tree<std::__cxx11::basic_string<char>, std::pair<const std::__cxx11::basic_string<char>, llvm::Init *>, std::_Select1st<std::pair<const std::__cxx11::basic_string<char>, llvm::Init *>>, std::less<void>>::_Rb_tree_impl" = type { [8 x i8], %"struct.std::_Rb_tree_header" }
%"class.std::unique_ptr" = type { %"struct.std::__uniq_ptr_data" }
%"struct.std::__uniq_ptr_data" = type { %"class.std::__uniq_ptr_impl" }
%"class.std::__uniq_ptr_impl" = type { %"class.std::tuple" }
%"class.std::tuple" = type { %"struct.std::_Tuple_impl" }
%"struct.std::_Tuple_impl" = type { %"struct.std::_Head_base.9" }
%"struct.std::_Head_base.9" = type { ptr }

$_ZN4llvm9StringRefC2EPKc = comdat any

$_ZN4llvm12function_refIFvRNS_12RecordKeeperERNS_11raw_ostreamEEEC2IRS5_EEOT_PNSt9enable_ifIXntsr3std7is_sameINS_12remove_cvrefIS9_E4typeES6_EE5valueEvE4typeEPNSB_IXooL_ZNSt17integral_constantIbLb1EE5valueEEsr3std14is_convertibleIDTclclsr3stdE7declvalIS9_EEclL_ZSt7declvalIS2_EDTcl9__declvalIS9_ELi0EEEvEEclL_ZSK_IS4_ESL_vEEEEvEE5valueEvE4typeE = comdat any

$_ZNSt11char_traitsIcE6lengthEPKc = comdat any

$_ZN4llvm12function_refIFvRNS_12RecordKeeperERNS_11raw_ostreamEEE11callback_fnIS5_EEvlS2_S4_ = comdat any

@_ZN4llvm24DisableABIBreakingChecksE = external global i32, align 4
@_ZN4llvm30VerifyDisableABIBreakingChecksE = weak hidden global ptr @_ZN4llvm24DisableABIBreakingChecksE, align 8
@_ZL1X = internal global %"class.llvm::TableGen::Emitter::OptClass" zeroinitializer, align 1
@.str = private unnamed_addr constant [19 x i8] c"gen-skeleton-class\00", align 1
@.str.1 = private unnamed_addr constant [32 x i8] c"Generate example skeleton class\00", align 1
@_ZL1Y = internal global %"struct.llvm::TableGen::Emitter::Opt" zeroinitializer, align 1
@.str.3 = private unnamed_addr constant [19 x i8] c"gen-skeleton-entry\00", align 1
@.str.4 = private unnamed_addr constant [32 x i8] c"Generate example skeleton entry\00", align 1
@.str.5 = private unnamed_addr constant [25 x i8] c"Skeleton data structures\00", align 1
@llvm.global_ctors = appending global [1 x { i32, ptr, ptr }] [{ i32, ptr, ptr } { i32 65535, ptr @_GLOBAL__sub_I_TableGenBackendSkeleton.cpp, ptr null }]

; Function Attrs: nounwind uwtable
define internal void @__cxx_global_var_init() #0 section ".text.startup" {
  %1 = alloca %"class.llvm::StringRef", align 8
  %2 = alloca %"class.llvm::StringRef", align 8
  call void @_ZN4llvm9StringRefC2EPKc(ptr noundef nonnull align 8 dereferenceable(16) %1, ptr noundef @.str)
  call void @_ZN4llvm9StringRefC2EPKc(ptr noundef nonnull align 8 dereferenceable(16) %2, ptr noundef @.str.1)
  %3 = getelementptr inbounds nuw { ptr, i64 }, ptr %1, i32 0, i32 0
  %4 = load ptr, ptr %3, align 8
  %5 = getelementptr inbounds nuw { ptr, i64 }, ptr %1, i32 0, i32 1
  %6 = load i64, ptr %5, align 8
  %7 = getelementptr inbounds nuw { ptr, i64 }, ptr %2, i32 0, i32 0
  %8 = load ptr, ptr %7, align 8
  %9 = getelementptr inbounds nuw { ptr, i64 }, ptr %2, i32 0, i32 1
  %10 = load i64, ptr %9, align 8
  call void @_ZN4llvm8TableGen7Emitter8OptClassIN12_GLOBAL__N_115SkeletonEmitterEEC2ENS_9StringRefES6_(ptr noundef nonnull align 1 dereferenceable(1) @_ZL1X, ptr %4, i64 %6, ptr %8, i64 %10)
  ret void
}

; Function Attrs: mustprogress nounwind uwtable
define linkonce_odr hidden void @_ZN4llvm9StringRefC2EPKc(ptr noundef nonnull align 8 dereferenceable(16) %0, ptr noundef %1) unnamed_addr #1 comdat align 2 {
  %3 = alloca ptr, align 8
  %4 = alloca ptr, align 8
  store ptr %0, ptr %3, align 8
  store ptr %1, ptr %4, align 8
  %5 = load ptr, ptr %3, align 8
  %6 = getelementptr inbounds nuw %"class.llvm::StringRef", ptr %5, i32 0, i32 0
  %7 = load ptr, ptr %4, align 8
  store ptr %7, ptr %6, align 8
  %8 = getelementptr inbounds nuw %"class.llvm::StringRef", ptr %5, i32 0, i32 1
  %9 = load ptr, ptr %4, align 8
  %10 = icmp ne ptr %9, null
  br i1 %10, label %11, label %14

11:                                               ; preds = %2
  %12 = load ptr, ptr %4, align 8
  %13 = call noundef i64 @_ZNSt11char_traitsIcE6lengthEPKc(ptr noundef %12)
  br label %15

14:                                               ; preds = %2
  br label %15

15:                                               ; preds = %14, %11
  %16 = phi i64 [ %13, %11 ], [ 0, %14 ]
  store i64 %16, ptr %8, align 8
  ret void
}

; Function Attrs: mustprogress nounwind uwtable
define internal void @_ZN4llvm8TableGen7Emitter8OptClassIN12_GLOBAL__N_115SkeletonEmitterEEC2ENS_9StringRefES6_(ptr noundef nonnull align 1 dereferenceable(1) %0, ptr %1, i64 %2, ptr %3, i64 %4) unnamed_addr #1 align 2 {
  %6 = alloca %"class.llvm::StringRef", align 8
  %7 = alloca %"class.llvm::StringRef", align 8
  %8 = alloca ptr, align 8
  %9 = alloca %"class.llvm::StringRef", align 8
  %10 = alloca %"class.llvm::function_ref", align 8
  %11 = alloca %"class.llvm::StringRef", align 8
  %12 = getelementptr inbounds nuw { ptr, i64 }, ptr %6, i32 0, i32 0
  store ptr %1, ptr %12, align 8
  %13 = getelementptr inbounds nuw { ptr, i64 }, ptr %6, i32 0, i32 1
  store i64 %2, ptr %13, align 8
  %14 = getelementptr inbounds nuw { ptr, i64 }, ptr %7, i32 0, i32 0
  store ptr %3, ptr %14, align 8
  %15 = getelementptr inbounds nuw { ptr, i64 }, ptr %7, i32 0, i32 1
  store i64 %4, ptr %15, align 8
  store ptr %0, ptr %8, align 8
  %16 = load ptr, ptr %8, align 8
  call void @llvm.memcpy.p0.p0.i64(ptr align 8 %9, ptr align 8 %6, i64 16, i1 false)
  call void @_ZN4llvm12function_refIFvRNS_12RecordKeeperERNS_11raw_ostreamEEEC2IRS5_EEOT_PNSt9enable_ifIXntsr3std7is_sameINS_12remove_cvrefIS9_E4typeES6_EE5valueEvE4typeEPNSB_IXooL_ZNSt17integral_constantIbLb1EE5valueEEsr3std14is_convertibleIDTclclsr3stdE7declvalIS9_EEclL_ZSt7declvalIS2_EDTcl9__declvalIS9_ELi0EEEvEEclL_ZSK_IS4_ESL_vEEEEvEE5valueEvE4typeE(ptr noundef nonnull align 8 dereferenceable(16) %10, ptr noundef nonnull @_ZN4llvm8TableGen7Emitter8OptClassIN12_GLOBAL__N_115SkeletonEmitterEE3runERNS_12RecordKeeperERNS_11raw_ostreamE, ptr noundef null, ptr noundef null)
  call void @llvm.memcpy.p0.p0.i64(ptr align 8 %11, ptr align 8 %7, i64 16, i1 false)
  %17 = getelementptr inbounds nuw { ptr, i64 }, ptr %9, i32 0, i32 0
  %18 = load ptr, ptr %17, align 8
  %19 = getelementptr inbounds nuw { ptr, i64 }, ptr %9, i32 0, i32 1
  %20 = load i64, ptr %19, align 8
  %21 = getelementptr inbounds nuw { ptr, i64 }, ptr %10, i32 0, i32 0
  %22 = load ptr, ptr %21, align 8
  %23 = getelementptr inbounds nuw { ptr, i64 }, ptr %10, i32 0, i32 1
  %24 = load i64, ptr %23, align 8
  call void @_ZN4llvm8TableGen7Emitter3OptC2ENS_9StringRefENS_12function_refIFvRNS_12RecordKeeperERNS_11raw_ostreamEEEES3_b(ptr noundef nonnull align 1 dereferenceable(1) %16, ptr %18, i64 %20, ptr %22, i64 %24, ptr noundef byval(%"class.llvm::StringRef") align 8 %11, i1 noundef zeroext false)
  ret void
}

; Function Attrs: nounwind uwtable
define internal void @__cxx_global_var_init.2() #0 section ".text.startup" {
  %1 = alloca %"class.llvm::StringRef", align 8
  %2 = alloca %"class.llvm::function_ref", align 8
  %3 = alloca %"class.llvm::StringRef", align 8
  call void @_ZN4llvm9StringRefC2EPKc(ptr noundef nonnull align 8 dereferenceable(16) %1, ptr noundef @.str.3)
  call void @_ZN4llvm12function_refIFvRNS_12RecordKeeperERNS_11raw_ostreamEEEC2IRS5_EEOT_PNSt9enable_ifIXntsr3std7is_sameINS_12remove_cvrefIS9_E4typeES6_EE5valueEvE4typeEPNSB_IXooL_ZNSt17integral_constantIbLb1EE5valueEEsr3std14is_convertibleIDTclclsr3stdE7declvalIS9_EEclL_ZSt7declvalIS2_EDTcl9__declvalIS9_ELi0EEEvEEclL_ZSK_IS4_ESL_vEEEEvEE5valueEvE4typeE(ptr noundef nonnull align 8 dereferenceable(16) %2, ptr noundef nonnull @_ZL12EmitSkeletonRN4llvm12RecordKeeperERNS_11raw_ostreamE, ptr noundef null, ptr noundef null)
  call void @_ZN4llvm9StringRefC2EPKc(ptr noundef nonnull align 8 dereferenceable(16) %3, ptr noundef @.str.4)
  %4 = getelementptr inbounds nuw { ptr, i64 }, ptr %1, i32 0, i32 0
  %5 = load ptr, ptr %4, align 8
  %6 = getelementptr inbounds nuw { ptr, i64 }, ptr %1, i32 0, i32 1
  %7 = load i64, ptr %6, align 8
  %8 = getelementptr inbounds nuw { ptr, i64 }, ptr %2, i32 0, i32 0
  %9 = load ptr, ptr %8, align 8
  %10 = getelementptr inbounds nuw { ptr, i64 }, ptr %2, i32 0, i32 1
  %11 = load i64, ptr %10, align 8
  call void @_ZN4llvm8TableGen7Emitter3OptC1ENS_9StringRefENS_12function_refIFvRNS_12RecordKeeperERNS_11raw_ostreamEEEES3_b(ptr noundef nonnull align 1 dereferenceable(1) @_ZL1Y, ptr %5, i64 %7, ptr %9, i64 %11, ptr noundef byval(%"class.llvm::StringRef") align 8 %3, i1 noundef zeroext false)
  ret void
}

; Function Attrs: mustprogress nounwind uwtable
define internal void @_ZL12EmitSkeletonRN4llvm12RecordKeeperERNS_11raw_ostreamE(ptr noundef nonnull align 8 dereferenceable(232) %0, ptr noundef nonnull align 8 dereferenceable(48) %1) #1 {
  %3 = alloca ptr, align 8
  %4 = alloca ptr, align 8
  %5 = alloca %"class.(anonymous namespace)::SkeletonEmitter", align 8
  store ptr %0, ptr %3, align 8
  store ptr %1, ptr %4, align 8
  %6 = load ptr, ptr %3, align 8
  call void @_ZN12_GLOBAL__N_115SkeletonEmitterC2ERN4llvm12RecordKeeperE(ptr noundef nonnull align 8 dereferenceable(8) %5, ptr noundef nonnull align 8 dereferenceable(232) %6)
  %7 = load ptr, ptr %4, align 8
  call void @_ZN12_GLOBAL__N_115SkeletonEmitter3runERN4llvm11raw_ostreamE(ptr noundef nonnull align 8 dereferenceable(8) %5, ptr noundef nonnull align 8 dereferenceable(48) %7)
  ret void
}

; Function Attrs: mustprogress nounwind uwtable
define linkonce_odr hidden void @_ZN4llvm12function_refIFvRNS_12RecordKeeperERNS_11raw_ostreamEEEC2IRS5_EEOT_PNSt9enable_ifIXntsr3std7is_sameINS_12remove_cvrefIS9_E4typeES6_EE5valueEvE4typeEPNSB_IXooL_ZNSt17integral_constantIbLb1EE5valueEEsr3std14is_convertibleIDTclclsr3stdE7declvalIS9_EEclL_ZSt7declvalIS2_EDTcl9__declvalIS9_ELi0EEEvEEclL_ZSK_IS4_ESL_vEEEEvEE5valueEvE4typeE(ptr noundef nonnull align 8 dereferenceable(16) %0, ptr noundef nonnull %1, ptr noundef %2, ptr noundef %3) unnamed_addr #1 comdat align 2 {
  %5 = alloca ptr, align 8
  %6 = alloca ptr, align 8
  %7 = alloca ptr, align 8
  %8 = alloca ptr, align 8
  store ptr %0, ptr %5, align 8
  store ptr %1, ptr %6, align 8
  store ptr %2, ptr %7, align 8
  store ptr %3, ptr %8, align 8
  %9 = load ptr, ptr %5, align 8
  %10 = getelementptr inbounds nuw %"class.llvm::function_ref", ptr %9, i32 0, i32 0
  store ptr @_ZN4llvm12function_refIFvRNS_12RecordKeeperERNS_11raw_ostreamEEE11callback_fnIS5_EEvlS2_S4_, ptr %10, align 8
  %11 = getelementptr inbounds nuw %"class.llvm::function_ref", ptr %9, i32 0, i32 1
  %12 = load ptr, ptr %6, align 8
  %13 = ptrtoint ptr %12 to i64
  store i64 %13, ptr %11, align 8
  ret void
}

declare void @_ZN4llvm8TableGen7Emitter3OptC1ENS_9StringRefENS_12function_refIFvRNS_12RecordKeeperERNS_11raw_ostreamEEEES3_b(ptr noundef nonnull align 1 dereferenceable(1), ptr, i64, ptr, i64, ptr noundef byval(%"class.llvm::StringRef") align 8, i1 noundef zeroext) unnamed_addr #2

; Function Attrs: mustprogress nounwind uwtable
define linkonce_odr hidden noundef i64 @_ZNSt11char_traitsIcE6lengthEPKc(ptr noundef %0) #1 comdat align 2 {
  %2 = alloca ptr, align 8
  store ptr %0, ptr %2, align 8
  %3 = load ptr, ptr %2, align 8
  %4 = call i64 @strlen(ptr noundef %3) #5
  ret i64 %4
}

; Function Attrs: nounwind
declare i64 @strlen(ptr noundef) #3

; Function Attrs: mustprogress nounwind uwtable
define internal void @_ZN12_GLOBAL__N_115SkeletonEmitterC2ERN4llvm12RecordKeeperE(ptr noundef nonnull align 8 dereferenceable(8) %0, ptr noundef nonnull align 8 dereferenceable(232) %1) unnamed_addr #1 align 2 {
  %3 = alloca ptr, align 8
  %4 = alloca ptr, align 8
  store ptr %0, ptr %3, align 8
  store ptr %1, ptr %4, align 8
  %5 = load ptr, ptr %3, align 8
  %6 = getelementptr inbounds nuw %"class.(anonymous namespace)::SkeletonEmitter", ptr %5, i32 0, i32 0
  %7 = load ptr, ptr %4, align 8
  store ptr %7, ptr %6, align 8
  ret void
}

; Function Attrs: mustprogress nounwind uwtable
define internal void @_ZN12_GLOBAL__N_115SkeletonEmitter3runERN4llvm11raw_ostreamE(ptr noundef nonnull align 8 dereferenceable(8) %0, ptr noundef nonnull align 8 dereferenceable(48) %1) #1 align 2 {
  %3 = alloca ptr, align 8
  %4 = alloca ptr, align 8
  %5 = alloca %"class.llvm::StringRef", align 8
  %6 = alloca %"class.llvm::RecordKeeper", align 8
  store ptr %0, ptr %3, align 8
  store ptr %1, ptr %4, align 8
  call void @_ZN4llvm9StringRefC2EPKc(ptr noundef nonnull align 8 dereferenceable(16) %5, ptr noundef @.str.5)
  %7 = load ptr, ptr %4, align 8
  call void @_ZN4llvm12RecordKeeperC1Ev(ptr noundef nonnull align 8 dereferenceable(232) %6)
  %8 = getelementptr inbounds nuw { ptr, i64 }, ptr %5, i32 0, i32 0
  %9 = load ptr, ptr %8, align 8
  %10 = getelementptr inbounds nuw { ptr, i64 }, ptr %5, i32 0, i32 1
  %11 = load i64, ptr %10, align 8
  call void @_ZN4llvm20emitSourceFileHeaderENS_9StringRefERNS_11raw_ostreamERKNS_12RecordKeeperE(ptr %9, i64 %11, ptr noundef nonnull align 8 dereferenceable(48) %7, ptr noundef nonnull align 8 dereferenceable(232) %6)
  call void @_ZN4llvm12RecordKeeperD1Ev(ptr noundef nonnull align 8 dereferenceable(232) %6) #5
  ret void
}

declare void @_ZN4llvm20emitSourceFileHeaderENS_9StringRefERNS_11raw_ostreamERKNS_12RecordKeeperE(ptr, i64, ptr noundef nonnull align 8 dereferenceable(48), ptr noundef nonnull align 8 dereferenceable(232)) #2

declare void @_ZN4llvm12RecordKeeperC1Ev(ptr noundef nonnull align 8 dereferenceable(232)) unnamed_addr #2

; Function Attrs: nounwind
declare void @_ZN4llvm12RecordKeeperD1Ev(ptr noundef nonnull align 8 dereferenceable(232)) unnamed_addr #3

; Function Attrs: nocallback nofree nounwind willreturn memory(argmem: readwrite)
declare void @llvm.memcpy.p0.p0.i64(ptr noalias nocapture writeonly, ptr noalias nocapture readonly, i64, i1 immarg) #4

; Function Attrs: mustprogress nounwind uwtable
define internal void @_ZN4llvm8TableGen7Emitter8OptClassIN12_GLOBAL__N_115SkeletonEmitterEE3runERNS_12RecordKeeperERNS_11raw_ostreamE(ptr noundef nonnull align 8 dereferenceable(232) %0, ptr noundef nonnull align 8 dereferenceable(48) %1) #1 align 2 {
  %3 = alloca ptr, align 8
  %4 = alloca ptr, align 8
  %5 = alloca %"class.(anonymous namespace)::SkeletonEmitter", align 8
  store ptr %0, ptr %3, align 8
  store ptr %1, ptr %4, align 8
  %6 = load ptr, ptr %3, align 8
  call void @_ZN12_GLOBAL__N_115SkeletonEmitterC2ERN4llvm12RecordKeeperE(ptr noundef nonnull align 8 dereferenceable(8) %5, ptr noundef nonnull align 8 dereferenceable(232) %6)
  %7 = load ptr, ptr %4, align 8
  call void @_ZN12_GLOBAL__N_115SkeletonEmitter3runERN4llvm11raw_ostreamE(ptr noundef nonnull align 8 dereferenceable(8) %5, ptr noundef nonnull align 8 dereferenceable(48) %7)
  ret void
}

declare void @_ZN4llvm8TableGen7Emitter3OptC2ENS_9StringRefENS_12function_refIFvRNS_12RecordKeeperERNS_11raw_ostreamEEEES3_b(ptr noundef nonnull align 1 dereferenceable(1), ptr, i64, ptr, i64, ptr noundef byval(%"class.llvm::StringRef") align 8, i1 noundef zeroext) unnamed_addr #2

; Function Attrs: mustprogress nounwind uwtable
define linkonce_odr hidden void @_ZN4llvm12function_refIFvRNS_12RecordKeeperERNS_11raw_ostreamEEE11callback_fnIS5_EEvlS2_S4_(i64 noundef %0, ptr noundef nonnull align 8 dereferenceable(232) %1, ptr noundef nonnull align 8 dereferenceable(48) %2) #1 comdat align 2 {
  %4 = alloca i64, align 8
  %5 = alloca ptr, align 8
  %6 = alloca ptr, align 8
  store i64 %0, ptr %4, align 8
  store ptr %1, ptr %5, align 8
  store ptr %2, ptr %6, align 8
  %7 = load i64, ptr %4, align 8
  %8 = inttoptr i64 %7 to ptr
  %9 = load ptr, ptr %5, align 8
  %10 = load ptr, ptr %6, align 8
  call void %8(ptr noundef nonnull align 8 dereferenceable(232) %9, ptr noundef nonnull align 8 dereferenceable(48) %10)
  ret void
}

; Function Attrs: nounwind uwtable
define internal void @_GLOBAL__sub_I_TableGenBackendSkeleton.cpp() #0 section ".text.startup" {
  call void @__cxx_global_var_init()
  call void @__cxx_global_var_init.2()
  ret void
}


!llvm.module.flags = !{!0, !1, !2, !3}

!0 = !{i32 1, !"wchar_size", i32 4}
!1 = !{i32 8, !"PIC Level", i32 2}
!2 = !{i32 7, !"uwtable", i32 2}
!3 = !{i32 7, !"frame-pointer", i32 2}
