; ModuleID = 'bench/llvm/original/TableGenBackendSkeleton.cpp.ll'
source_filename = "bench/llvm/original/TableGenBackendSkeleton.cpp.ll"
target datalayout = "e-m:e-p270:32:32-p271:32:32-p272:64:64-i64:64-i128:128-f80:128-n8:16:32:64-S128"
target triple = "x86_64-pc-linux-gnu"

%"class.llvm::TableGen::Emitter::OptClass" = type { i8 }
%"struct.llvm::TableGen::Emitter::Opt" = type { i8 }
%"class.llvm::RecordKeeper" = type { %"class.std::__cxx11::basic_string", %"class.std::map", %"class.std::map", %"class.llvm::StringMap", %"class.std::map.3", ptr, ptr, i8, %"class.std::unique_ptr" }
%"class.std::__cxx11::basic_string" = type { %"struct.std::__cxx11::basic_string<char>::_Alloc_hider", i64, %union.anon }
%"struct.std::__cxx11::basic_string<char>::_Alloc_hider" = type { ptr }
%union.anon = type { i64, [8 x i8] }
%"class.std::map" = type { %"class.std::_Rb_tree" }
%"class.std::_Rb_tree" = type { %"struct.std::_Rb_tree<std::__cxx11::basic_string<char>, std::pair<const std::__cxx11::basic_string<char>, std::unique_ptr<llvm::Record>>, std::_Select1st<std::pair<const std::__cxx11::basic_string<char>, std::unique_ptr<llvm::Record>>>, std::less<void>>::_Rb_tree_impl" }
%"struct.std::_Rb_tree<std::__cxx11::basic_string<char>, std::pair<const std::__cxx11::basic_string<char>, std::unique_ptr<llvm::Record>>, std::_Select1st<std::pair<const std::__cxx11::basic_string<char>, std::unique_ptr<llvm::Record>>>, std::less<void>>::_Rb_tree_impl" = type { [8 x i8], %"struct.std::_Rb_tree_header" }
%"struct.std::_Rb_tree_header" = type { %"struct.std::_Rb_tree_node_base", i64 }
%"struct.std::_Rb_tree_node_base" = type { i32, ptr, ptr, ptr }
%"class.llvm::StringMap" = type { %"class.llvm::StringMapImpl" }
%"class.llvm::StringMapImpl" = type { ptr, i32, i32, i32, i32 }
%"class.std::map.3" = type { %"class.std::_Rb_tree.4" }
%"class.std::_Rb_tree.4" = type { %"struct.std::_Rb_tree<std::__cxx11::basic_string<char>, std::pair<const std::__cxx11::basic_string<char>, llvm::Init *>, std::_Select1st<std::pair<const std::__cxx11::basic_string<char>, llvm::Init *>>, std::less<void>>::_Rb_tree_impl" }
%"struct.std::_Rb_tree<std::__cxx11::basic_string<char>, std::pair<const std::__cxx11::basic_string<char>, llvm::Init *>, std::_Select1st<std::pair<const std::__cxx11::basic_string<char>, llvm::Init *>>, std::less<void>>::_Rb_tree_impl" = type { [8 x i8], %"struct.std::_Rb_tree_header" }
%"class.std::unique_ptr" = type { %"struct.std::__uniq_ptr_data" }
%"struct.std::__uniq_ptr_data" = type { %"class.std::__uniq_ptr_impl" }
%"class.std::__uniq_ptr_impl" = type { %"class.std::tuple" }
%"class.std::tuple" = type { %"struct.std::_Tuple_impl" }
%"struct.std::_Tuple_impl" = type { %"struct.std::_Head_base.9" }
%"struct.std::_Head_base.9" = type { ptr }
%"class.llvm::StringRef" = type { ptr, i64 }

$_ZN4llvm12function_refIFvRNS_12RecordKeeperERNS_11raw_ostreamEEE11callback_fnIS5_EEvlS2_S4_ = comdat any

@_ZN4llvm24DisableABIBreakingChecksE = external global i32, align 4
@_ZN4llvm30VerifyDisableABIBreakingChecksE = weak hidden local_unnamed_addr global ptr @_ZN4llvm24DisableABIBreakingChecksE, align 8
@_ZL1X = internal global %"class.llvm::TableGen::Emitter::OptClass" zeroinitializer, align 1
@.str = private unnamed_addr constant [19 x i8] c"gen-skeleton-class\00", align 1
@.str.1 = private unnamed_addr constant [32 x i8] c"Generate example skeleton class\00", align 1
@_ZL1Y = internal global %"struct.llvm::TableGen::Emitter::Opt" zeroinitializer, align 1
@.str.3 = private unnamed_addr constant [19 x i8] c"gen-skeleton-entry\00", align 1
@.str.4 = private unnamed_addr constant [32 x i8] c"Generate example skeleton entry\00", align 1
@.str.5 = private unnamed_addr constant [25 x i8] c"Skeleton data structures\00", align 1
@llvm.global_ctors = appending global [1 x { i32, ptr, ptr }] [{ i32, ptr, ptr } { i32 65535, ptr @_GLOBAL__sub_I_TableGenBackendSkeleton.cpp, ptr null }]

; Function Attrs: mustprogress nounwind uwtable
define internal void @_ZL12EmitSkeletonRN4llvm12RecordKeeperERNS_11raw_ostreamE(ptr nocapture nonnull readnone align 8 %0, ptr noundef nonnull align 8 dereferenceable(48) %1) #0 {
  %3 = alloca %"class.llvm::RecordKeeper", align 8
  call void @llvm.lifetime.start.p0(i64 232, ptr nonnull %3)
  call void @_ZN4llvm12RecordKeeperC1Ev(ptr noundef nonnull align 8 dereferenceable(232) %3) #5
  call void @_ZN4llvm20emitSourceFileHeaderENS_9StringRefERNS_11raw_ostreamERKNS_12RecordKeeperE(ptr nonnull @.str.5, i64 24, ptr noundef nonnull align 8 dereferenceable(48) %1, ptr noundef nonnull align 8 dereferenceable(232) %3) #5
  call void @_ZN4llvm12RecordKeeperD1Ev(ptr noundef nonnull align 8 dereferenceable(232) %3) #5
  call void @llvm.lifetime.end.p0(i64 232, ptr nonnull %3)
  ret void
}

declare void @_ZN4llvm8TableGen7Emitter3OptC1ENS_9StringRefENS_12function_refIFvRNS_12RecordKeeperERNS_11raw_ostreamEEEES3_b(ptr noundef nonnull align 1 dereferenceable(1), ptr, i64, ptr, i64, ptr noundef byval(%"class.llvm::StringRef") align 8, i1 noundef zeroext) unnamed_addr #1

declare void @_ZN4llvm20emitSourceFileHeaderENS_9StringRefERNS_11raw_ostreamERKNS_12RecordKeeperE(ptr, i64, ptr noundef nonnull align 8 dereferenceable(48), ptr noundef nonnull align 8 dereferenceable(232)) local_unnamed_addr #1

declare void @_ZN4llvm12RecordKeeperC1Ev(ptr noundef nonnull align 8 dereferenceable(232)) unnamed_addr #1

; Function Attrs: nounwind
declare void @_ZN4llvm12RecordKeeperD1Ev(ptr noundef nonnull align 8 dereferenceable(232)) unnamed_addr #2

; Function Attrs: mustprogress nounwind uwtable
define internal void @_ZN4llvm8TableGen7Emitter8OptClassIN12_GLOBAL__N_115SkeletonEmitterEE3runERNS_12RecordKeeperERNS_11raw_ostreamE(ptr nocapture nonnull readnone align 8 %0, ptr noundef nonnull align 8 dereferenceable(48) %1) #0 align 2 {
  %3 = alloca %"class.llvm::RecordKeeper", align 8
  call void @llvm.lifetime.start.p0(i64 232, ptr nonnull %3)
  call void @_ZN4llvm12RecordKeeperC1Ev(ptr noundef nonnull align 8 dereferenceable(232) %3) #5
  call void @_ZN4llvm20emitSourceFileHeaderENS_9StringRefERNS_11raw_ostreamERKNS_12RecordKeeperE(ptr nonnull @.str.5, i64 24, ptr noundef nonnull align 8 dereferenceable(48) %1, ptr noundef nonnull align 8 dereferenceable(232) %3) #5
  call void @_ZN4llvm12RecordKeeperD1Ev(ptr noundef nonnull align 8 dereferenceable(232) %3) #5
  call void @llvm.lifetime.end.p0(i64 232, ptr nonnull %3)
  ret void
}

declare void @_ZN4llvm8TableGen7Emitter3OptC2ENS_9StringRefENS_12function_refIFvRNS_12RecordKeeperERNS_11raw_ostreamEEEES3_b(ptr noundef nonnull align 1 dereferenceable(1), ptr, i64, ptr, i64, ptr noundef byval(%"class.llvm::StringRef") align 8, i1 noundef zeroext) unnamed_addr #1

; Function Attrs: mustprogress nounwind uwtable
define linkonce_odr hidden void @_ZN4llvm12function_refIFvRNS_12RecordKeeperERNS_11raw_ostreamEEE11callback_fnIS5_EEvlS2_S4_(i64 noundef %0, ptr noundef nonnull align 8 dereferenceable(232) %1, ptr noundef nonnull align 8 dereferenceable(48) %2) #0 comdat align 2 {
  %4 = inttoptr i64 %0 to ptr
  tail call void %4(ptr noundef nonnull align 8 dereferenceable(232) %1, ptr noundef nonnull align 8 dereferenceable(48) %2) #5
  ret void
}

; Function Attrs: nounwind uwtable
define internal void @_GLOBAL__sub_I_TableGenBackendSkeleton.cpp() #3 section ".text.startup" {
  %1 = alloca %"class.llvm::StringRef", align 8
  %2 = alloca %"class.llvm::StringRef", align 8
  call void @llvm.lifetime.start.p0(i64 16, ptr nonnull %2)
  store ptr @.str.1, ptr %2, align 8
  %.sroa.22.0..sroa_idx.i.i = getelementptr inbounds i8, ptr %2, i64 8
  store i64 31, ptr %.sroa.22.0..sroa_idx.i.i, align 8
  tail call void @_ZN4llvm8TableGen7Emitter3OptC2ENS_9StringRefENS_12function_refIFvRNS_12RecordKeeperERNS_11raw_ostreamEEEES3_b(ptr noundef nonnull align 1 dereferenceable(1) @_ZL1X, ptr nonnull @.str, i64 18, ptr nonnull @_ZN4llvm12function_refIFvRNS_12RecordKeeperERNS_11raw_ostreamEEE11callback_fnIS5_EEvlS2_S4_, i64 ptrtoint (ptr @_ZN4llvm8TableGen7Emitter8OptClassIN12_GLOBAL__N_115SkeletonEmitterEE3runERNS_12RecordKeeperERNS_11raw_ostreamE to i64), ptr noundef nonnull byval(%"class.llvm::StringRef") align 8 %2, i1 noundef zeroext false) #5
  call void @llvm.lifetime.end.p0(i64 16, ptr nonnull %2)
  call void @llvm.lifetime.start.p0(i64 16, ptr nonnull %1)
  store ptr @.str.4, ptr %1, align 8
  %3 = getelementptr inbounds nuw i8, ptr %1, i64 8
  store i64 31, ptr %3, align 8
  tail call void @_ZN4llvm8TableGen7Emitter3OptC1ENS_9StringRefENS_12function_refIFvRNS_12RecordKeeperERNS_11raw_ostreamEEEES3_b(ptr noundef nonnull align 1 dereferenceable(1) @_ZL1Y, ptr nonnull @.str.3, i64 18, ptr nonnull @_ZN4llvm12function_refIFvRNS_12RecordKeeperERNS_11raw_ostreamEEE11callback_fnIS5_EEvlS2_S4_, i64 ptrtoint (ptr @_ZL12EmitSkeletonRN4llvm12RecordKeeperERNS_11raw_ostreamE to i64), ptr noundef nonnull byval(%"class.llvm::StringRef") align 8 %1, i1 noundef zeroext false) #5
  call void @llvm.lifetime.end.p0(i64 16, ptr nonnull %1)
  ret void
}

; Function Attrs: nocallback nofree nosync nounwind willreturn memory(argmem: readwrite)
declare void @llvm.lifetime.start.p0(i64 immarg, ptr nocapture) #4

; Function Attrs: nocallback nofree nosync nounwind willreturn memory(argmem: readwrite)
declare void @llvm.lifetime.end.p0(i64 immarg, ptr nocapture) #4


!llvm.module.flags = !{!0, !1, !2, !3}

!0 = !{i32 1, !"wchar_size", i32 4}
!1 = !{i32 8, !"PIC Level", i32 2}
!2 = !{i32 7, !"uwtable", i32 2}
!3 = !{i32 7, !"frame-pointer", i32 2}
